Sections:
00: "CODE" (0-4F7)
01: "BSS" (0-60)


Source: "bootrom.asm"
                            	     1: 	idnt	"bootrom.c"
                            	     2: 	fpu	1
                            	     3: 	opt o+,ol+,op+,oc+,ot+,oj+,ob+,om+
                            	     4: 	section	"CODE",code
                            	     5: 	public	_i2c_init
                            	     6: 	cnop	0,4
                            	     7: _i2c_init
                            	     8: 	movem.l	l4,-(a7)
00:00000000 206F0004        	     9: 	move.l	(4+l6,a7),a0
00:00000004 42280002        	    10: 	move.b	#0,(2,a0)
00:00000008 206F0004        	    11: 	move.l	(4+l6,a7),a0
00:0000000C 10BC0018        	    12: 	move.b	#24,(a0)
00:00000010 206F0004        	    13: 	move.l	(4+l6,a7),a0
00:00000014 42280001        	    14: 	move.b	#0,(1,a0)
00:00000018 7000            	    15: 	moveq	#0,d0
                            	    16: l2
                            	    17: l4	reg
                            	    18: l6	equ	0
00:0000001A 4E75            	    19: 	rts
                            	    20: ; stacksize=0
                            	    21: 	fpu	1
                            	    22: 	opt o+,ol+,op+,oc+,ot+,oj+,ob+,om+
                            	    23: 	public	_i2c_enable
                            	    24: 	cnop	0,4
                            	    25: _i2c_enable
                            	    26: 	movem.l	l9,-(a7)
00:0000001C 206F0004        	    27: 	move.l	(4+l11,a7),a0
00:00000020 117C00800002    	    28: 	move.b	#-128,(2,a0)
00:00000026 7000            	    29: 	moveq	#0,d0
                            	    30: l7
                            	    31: l9	reg
                            	    32: l11	equ	0
00:00000028 4E75            	    33: 	rts
                            	    34: ; stacksize=0
                            	    35: 	fpu	1
                            	    36: 	opt o+,ol+,op+,oc+,ot+,oj+,ob+,om+
                            	    37: 	public	_i2c_disable
                            	    38: 	cnop	0,4
                            	    39: _i2c_disable
                            	    40: 	movem.l	l14,-(a7)
00:0000002C 206F0004        	    41: 	move.l	(4+l16,a7),a0
00:00000030 42280002        	    42: 	move.b	#0,(2,a0)
00:00000034 7000            	    43: 	moveq	#0,d0
                            	    44: l12
                            	    45: l14	reg
                            	    46: l16	equ	0
00:00000036 4E75            	    47: 	rts
                            	    48: ; stacksize=0
                            	    49: 	fpu	1
                            	    50: 	opt o+,ol+,op+,oc+,ot+,oj+,ob+,om+
                            	    51: 	public	_i2c_wait_tip
                            	    52: 	cnop	0,4
                            	    53: _i2c_wait_tip
                            	    54: 	movem.l	l22,-(a7)
                            	    55: l19
                            	    56: l21
00:00000038 206F0004        	    57: 	move.l	(4+l24,a7),a0
00:0000003C 7002            	    58: 	moveq	#2,d0
00:0000003E C0280004        	    59: 	and.b	(4,a0),d0
00:00000042 66F4            	    60: 	bne	l19
                            	    61: l20
00:00000044 7000            	    62: 	moveq	#0,d0
                            	    63: l17
                            	    64: l22	reg
                            	    65: l24	equ	0
00:00000046 4E75            	    66: 	rts
                            	    67: ; stacksize=0
                            	    68: 	fpu	1
                            	    69: 	opt o+,ol+,op+,oc+,ot+,oj+,ob+,om+
                            	    70: 	public	_i2c_get_status
                            	    71: 	cnop	0,4
                            	    72: _i2c_get_status
                            	    73: 	movem.l	l27,-(a7)
00:00000048 206F0004        	    74: 	move.l	(4+l29,a7),a0
00:0000004C 10280004        	    75: 	move.b	(4,a0),d0
00:00000050 4880            	    76: 	ext.w	d0
00:00000052 48C0            	    77: 	ext.l	d0
                            	    78: l25
                            	    79: l27	reg
                            	    80: l29	equ	0
00:00000054 4E75            	    81: 	rts
                            	    82: ; stacksize=0
                            	    83: 	fpu	1
                            	    84: 	opt o+,ol+,op+,oc+,ot+,oj+,ob+,om+
                            	    85: 	public	_i2c_cmd_read_with_stop
                            	    86: 	cnop	0,4
                            	    87: _i2c_cmd_read_with_stop
                            	    88: 	movem.l	l32,-(a7)
00:00000058 206F0004        	    89: 	move.l	(4+l34,a7),a0
00:0000005C 117C00680004    	    90: 	move.b	#104,(4,a0)
00:00000062 2F2F0004        	    91: 	move.l	(4+l34,a7),-(a7)
00:00000066 61D0            	    92: 	jsr	_i2c_wait_tip
00:00000068 2F2F0008        	    93: 	move.l	(8+l34,a7),-(a7)
00:0000006C 61DA            	    94: 	jsr	_i2c_get_status
00:0000006E 504F            	    95: 	addq.w	#8,a7
                            	    96: l30
                            	    97: l32	reg
                            	    98: l34	equ	0
00:00000070 4E75            	    99: 	rts
                            	   100: ; stacksize=12
                            	   101: 	fpu	1
                            	   102: 	opt o+,ol+,op+,oc+,ot+,oj+,ob+,om+
                            	   103: 	public	_i2c_cmd_read_with_ack
                            	   104: 	cnop	0,4
                            	   105: _i2c_cmd_read_with_ack
                            	   106: 	movem.l	l37,-(a7)
00:00000074 206F0004        	   107: 	move.l	(4+l39,a7),a0
00:00000078 117C00200004    	   108: 	move.b	#32,(4,a0)
00:0000007E 2F2F0004        	   109: 	move.l	(4+l39,a7),-(a7)
00:00000082 61B4            	   110: 	jsr	_i2c_wait_tip
00:00000084 2F2F0008        	   111: 	move.l	(8+l39,a7),-(a7)
00:00000088 61BE            	   112: 	jsr	_i2c_get_status
00:0000008A 504F            	   113: 	addq.w	#8,a7
                            	   114: l35
                            	   115: l37	reg
                            	   116: l39	equ	0
00:0000008C 4E75            	   117: 	rts
                            	   118: ; stacksize=12
                            	   119: 	fpu	1
                            	   120: 	opt o+,ol+,op+,oc+,ot+,oj+,ob+,om+
                            	   121: 	public	_i2c_read_byte
                            	   122: 	cnop	0,4
                            	   123: _i2c_read_byte
                            	   124: 	movem.l	l42,-(a7)
00:00000090 206F0004        	   125: 	move.l	(4+l44,a7),a0
00:00000094 10280003        	   126: 	move.b	(3,a0),d0
00:00000098 4880            	   127: 	ext.w	d0
00:0000009A 48C0            	   128: 	ext.l	d0
                            	   129: l40
                            	   130: l42	reg
                            	   131: l44	equ	0
00:0000009C 4E75            	   132: 	rts
                            	   133: ; stacksize=0
                            	   134: 	fpu	1
                            	   135: 	opt o+,ol+,op+,oc+,ot+,oj+,ob+,om+
                            	   136: 	public	_i2c_cmd
                            	   137: 	cnop	0,4
                            	   138: _i2c_cmd
                            	   139: 	movem.l	l47,-(a7)
00:000000A0 206F0004        	   140: 	move.l	(4+l49,a7),a0
00:000000A4 116F000F0003    	   141: 	move.b	(15+l49,a7),(3,a0)
00:000000AA 206F0004        	   142: 	move.l	(4+l49,a7),a0
00:000000AE 116F000B0004    	   143: 	move.b	(11+l49,a7),(4,a0)
00:000000B4 2F2F0004        	   144: 	move.l	(4+l49,a7),-(a7)
00:000000B8 6100FF7E        	   145: 	jsr	_i2c_wait_tip
00:000000BC 2F2F0008        	   146: 	move.l	(8+l49,a7),-(a7)
00:000000C0 6186            	   147: 	jsr	_i2c_get_status
00:000000C2 504F            	   148: 	addq.w	#8,a7
                            	   149: l45
                            	   150: l47	reg
                            	   151: l49	equ	0
00:000000C4 4E75            	   152: 	rts
                            	   153: ; stacksize=12
                            	   154: 	fpu	1
                            	   155: 	opt o+,ol+,op+,oc+,ot+,oj+,ob+,om+
                            	   156: 	public	_i2c_read
                            	   157: 	cnop	0,4
                            	   158: _i2c_read
00:000000C8 594F            	   159: 	subq.w	#4,a7
                            	   160: 	movem.l	l56,-(a7)
00:000000CA 4297            	   161: 	move.l	#0,(0+l58,a7)
00:000000CC 2F2F0008        	   162: 	move.l	(8+l58,a7),-(a7)
00:000000D0 6100FF4A        	   163: 	jsr	_i2c_enable
00:000000D4 202F0010        	   164: 	move.l	(16+l58,a7),d0
00:000000D8 D080            	   165: 	lsl.l	#1,d0
00:000000DA 2F00            	   166: 	move.l	d0,-(a7)
00:000000DC 48780090        	   167: 	move.l	#144,-(a7)
00:000000E0 2F2F0014        	   168: 	move.l	(20+l58,a7),-(a7)
00:000000E4 61BA            	   169: 	jsr	_i2c_cmd
00:000000E6 2F2F0020        	   170: 	move.l	(32+l58,a7),-(a7)
00:000000EA 48780010        	   171: 	move.l	#16,-(a7)
00:000000EE 2F2F0020        	   172: 	move.l	(32+l58,a7),-(a7)
00:000000F2 61AC            	   173: 	jsr	_i2c_cmd
00:000000F4 202F0028        	   174: 	move.l	(40+l58,a7),d0
00:000000F8 D080            	   175: 	lsl.l	#1,d0
00:000000FA 80BC00000001    	   176: 	or.l	#1,d0
00:00000100 2F00            	   177: 	move.l	d0,-(a7)
00:00000102 48780090        	   178: 	move.l	#144,-(a7)
00:00000106 2F2F002C        	   179: 	move.l	(44+l58,a7),-(a7)
00:0000010A 6194            	   180: 	jsr	_i2c_cmd
00:0000010C 42AF0028        	   181: 	move.l	#0,(40+l58,a7)
00:00000110 4FEF0028        	   182: 	add.w	#40,a7
00:00000114 602E            	   183: 	bra	l53
                            	   184: l52
00:00000116 2F2F0008        	   185: 	move.l	(8+l58,a7),-(a7)
00:0000011A 6100FF58        	   186: 	jsr	_i2c_cmd_read_with_ack
00:0000011E 2F2F000C        	   187: 	move.l	(12+l58,a7),-(a7)
00:00000122 61A4            	   188: 	jsr	_i2c_read
00:00000124 206F001C        	   189: 	move.l	(28+l58,a7),a0
00:00000128 D1EF0008        	   190: 	add.l	(8+l58,a7),a0
00:0000012C 1080            	   191: 	move.b	d0,(a0)
00:0000012E 504F            	   192: 	addq.w	#8,a7
                            	   193: l55
00:00000130 202F0018        	   194: 	move.l	(24+l58,a7),d0
00:00000134 53AF0018        	   195: 	subq.l	#1,(24+l58,a7)
00:00000138 202F0010        	   196: 	move.l	(16+l58,a7),d0
00:0000013C 52AF0010        	   197: 	addq.l	#1,(16+l58,a7)
00:00000140 2017            	   198: 	move.l	(0+l58,a7),d0
00:00000142 5297            	   199: 	addq.l	#1,(0+l58,a7)
                            	   200: l53
00:00000144 7001            	   201: 	moveq	#1,d0
00:00000146 B0AF0018        	   202: 	cmp.l	(24+l58,a7),d0
00:0000014A 6DCA            	   203: 	blt	l52
                            	   204: l54
00:0000014C 2F2F0008        	   205: 	move.l	(8+l58,a7),-(a7)
00:00000150 6100FF06        	   206: 	jsr	_i2c_cmd_read_with_stop
00:00000154 2F2F000C        	   207: 	move.l	(12+l58,a7),-(a7)
00:00000158 6100FF6E        	   208: 	jsr	_i2c_read
00:0000015C 206F001C        	   209: 	move.l	(28+l58,a7),a0
00:00000160 D1EF0008        	   210: 	add.l	(8+l58,a7),a0
00:00000164 1080            	   211: 	move.b	d0,(a0)
00:00000166 2F2F0010        	   212: 	move.l	(16+l58,a7),-(a7)
00:0000016A 6100FEC0        	   213: 	jsr	_i2c_disable
00:0000016E 4FEF000C        	   214: 	add.w	#12,a7
                            	   215: l50
                            	   216: l56	reg
                            	   217: l58	equ	0
00:00000172 584F            	   218: 	addq.w	#4,a7
00:00000174 4E75            	   219: 	rts
                            	   220: 	fpu	1
                            	   221: 	opt o+,ol+,op+,oc+,ot+,oj+,ob+,om+
                            	   222: 	public	_i2c_write
                            	   223: 	cnop	0,4
                            	   224: _i2c_write
00:00000178 594F            	   225: 	subq.w	#4,a7
                            	   226: 	movem.l	l65,-(a7)
00:0000017A 4297            	   227: 	move.l	#0,(0+l67,a7)
00:0000017C 2F2F0008        	   228: 	move.l	(8+l67,a7),-(a7)
00:00000180 6100FE9A        	   229: 	jsr	_i2c_enable
00:00000184 202F0010        	   230: 	move.l	(16+l67,a7),d0
00:00000188 D080            	   231: 	lsl.l	#1,d0
00:0000018A 2F00            	   232: 	move.l	d0,-(a7)
00:0000018C 48780090        	   233: 	move.l	#144,-(a7)
00:00000190 2F2F0014        	   234: 	move.l	(20+l67,a7),-(a7)
00:00000194 6100FF0A        	   235: 	jsr	_i2c_cmd
00:00000198 2F2F0020        	   236: 	move.l	(32+l67,a7),-(a7)
00:0000019C 48780010        	   237: 	move.l	#16,-(a7)
00:000001A0 2F2F0020        	   238: 	move.l	(32+l67,a7),-(a7)
00:000001A4 6100FEFA        	   239: 	jsr	_i2c_cmd
00:000001A8 42AF001C        	   240: 	move.l	#0,(28+l67,a7)
00:000001AC 4FEF001C        	   241: 	add.w	#28,a7
00:000001B0 6032            	   242: 	bra	l62
                            	   243: l61
00:000001B2 206F0014        	   244: 	move.l	(20+l67,a7),a0
00:000001B6 D1D7            	   245: 	add.l	(0+l67,a7),a0
00:000001B8 1010            	   246: 	move.b	(a0),d0
00:000001BA 4880            	   247: 	ext.w	d0
00:000001BC 48C0            	   248: 	ext.l	d0
00:000001BE 2F00            	   249: 	move.l	d0,-(a7)
00:000001C0 48780010        	   250: 	move.l	#16,-(a7)
00:000001C4 2F2F0010        	   251: 	move.l	(16+l67,a7),-(a7)
00:000001C8 6100FED6        	   252: 	jsr	_i2c_cmd
00:000001CC 4FEF000C        	   253: 	add.w	#12,a7
                            	   254: l64
00:000001D0 202F0018        	   255: 	move.l	(24+l67,a7),d0
00:000001D4 53AF0018        	   256: 	subq.l	#1,(24+l67,a7)
00:000001D8 202F0010        	   257: 	move.l	(16+l67,a7),d0
00:000001DC 52AF0010        	   258: 	addq.l	#1,(16+l67,a7)
00:000001E0 2017            	   259: 	move.l	(0+l67,a7),d0
00:000001E2 5297            	   260: 	addq.l	#1,(0+l67,a7)
                            	   261: l62
00:000001E4 7001            	   262: 	moveq	#1,d0
00:000001E6 B0AF0018        	   263: 	cmp.l	(24+l67,a7),d0
00:000001EA 6DC6            	   264: 	blt	l61
                            	   265: l63
00:000001EC 206F0014        	   266: 	move.l	(20+l67,a7),a0
00:000001F0 D1D7            	   267: 	add.l	(0+l67,a7),a0
00:000001F2 1010            	   268: 	move.b	(a0),d0
00:000001F4 4880            	   269: 	ext.w	d0
00:000001F6 48C0            	   270: 	ext.l	d0
00:000001F8 2F00            	   271: 	move.l	d0,-(a7)
00:000001FA 48780050        	   272: 	move.l	#80,-(a7)
00:000001FE 2F2F0010        	   273: 	move.l	(16+l67,a7),-(a7)
00:00000202 6100FE9C        	   274: 	jsr	_i2c_cmd
00:00000206 2F2F0014        	   275: 	move.l	(20+l67,a7),-(a7)
00:0000020A 6100FE20        	   276: 	jsr	_i2c_disable
00:0000020E 4FEF0010        	   277: 	add.w	#16,a7
                            	   278: l59
                            	   279: l65	reg
                            	   280: l67	equ	0
00:00000212 584F            	   281: 	addq.w	#4,a7
00:00000214 4E75            	   282: 	rts
                            	   283: ; stacksize=48
                            	   284: 	fpu	1
                            	   285: 	opt o+,ol+,op+,oc+,ot+,oj+,ob+,om+
                            	   286: 	public	_rtc_read
                            	   287: 	cnop	0,4
                            	   288: _rtc_read
                            	   289: 	movem.l	l70,-(a7)
00:00000218 48780060        	   290: 	move.l	#96,-(a7)
00:0000021C 487900000000    	   291: 	pea	l1
00:00000222 42A7            	   292: 	move.l	#0,-(a7)
00:00000224 4878006F        	   293: 	move.l	#111,-(a7)
00:00000228 4879FD069010    	   294: 	move.l	#4245065744,-(a7)
00:0000022E 6100FE98        	   295: 	jsr	_i2c_read
00:00000232 4FEF0014        	   296: 	add.w	#20,a7
                            	   297: l68
                            	   298: l70	reg
                            	   299: l72	equ	0
00:00000236 4E75            	   300: 	rts
                            	   301: 	fpu	1
                            	   302: 	opt o+,ol+,op+,oc+,ot+,oj+,ob+,om+
                            	   303: 	public	_rtc_write
                            	   304: 	cnop	0,4
                            	   305: _rtc_write
                            	   306: 	movem.l	l75,-(a7)
00:00000238 48780060        	   307: 	move.l	#96,-(a7)
00:0000023C 487900000000    	   308: 	pea	l1
00:00000242 42A7            	   309: 	move.l	#0,-(a7)
00:00000244 4878006F        	   310: 	move.l	#111,-(a7)
00:00000248 4879FD069010    	   311: 	move.l	#4245065744,-(a7)
00:0000024E 6100FF28        	   312: 	jsr	_i2c_write
00:00000252 4FEF0014        	   313: 	add.w	#20,a7
                            	   314: l73
                            	   315: l75	reg
                            	   316: l77	equ	0
00:00000256 4E75            	   317: 	rts
                            	   318: ; stacksize=72
                            	   319: 	fpu	1
                            	   320: 	opt o+,ol+,op+,oc+,ot+,oj+,ob+,om+
                            	   321: 	public	_rand_init
                            	   322: 	cnop	0,4
                            	   323: _rand_init
                            	   324: 	movem.l	l80,-(a7)
00:00000258 206F0004        	   325: 	move.l	(4+l82,a7),a0
00:0000025C 42A80004        	   326: 	move.l	#0,(4,a0)
00:00000260 206F0004        	   327: 	move.l	(4+l82,a7),a0
00:00000264 217C123456780008	   328: 	move.l	#305419896,(8,a0)
00:0000026C 206F0004        	   329: 	move.l	(4+l82,a7),a0
00:00000270 217C88888888000C	   330: 	move.l	#-2004318072,(12,a0)
00:00000278 206F0004        	   331: 	move.l	(4+l82,a7),a0
00:0000027C 20BC12345678    	   332: 	move.l	#305419896,(a0)
                            	   333: l78
                            	   334: l80	reg
                            	   335: l82	equ	0
00:00000282 4E75            	   336: 	rts
                            	   337: ; stacksize=0
                            	   338: 	fpu	1
                            	   339: 	opt o+,ol+,op+,oc+,ot+,oj+,ob+,om+
                            	   340: 	public	_get_rand
                            	   341: 	cnop	0,4
                            	   342: _get_rand
00:00000284 594F            	   343: 	subq.w	#4,a7
                            	   344: 	movem.l	l85,-(a7)
00:00000286 206F0008        	   345: 	move.l	(8+l87,a7),a0
00:0000028A 2E90            	   346: 	move.l	(a0),(0+l87,a7)
00:0000028C 206F0008        	   347: 	move.l	(8+l87,a7),a0
00:00000290 2097            	   348: 	move.l	(0+l87,a7),(a0)
00:00000292 2017            	   349: 	move.l	(0+l87,a7),d0
                            	   350: l83
                            	   351: l85	reg
                            	   352: l87	equ	0
00:00000294 584F            	   353: 	addq.w	#4,a7
00:00000296 4E75            	   354: 	rts
                            	   355: ; stacksize=4
                            	   356: 	fpu	1
                            	   357: 	opt o+,ol+,op+,oc+,ot+,oj+,ob+,om+
                            	   358: 	public	_get_rand_float
                            	   359: 	cnop	0,4
                            	   360: _get_rand_float
00:00000298 4FEFFFF4        	   361: 	sub.w	#12,a7
                            	   362: 	fmovem.x	l91,-(a7)
                            	   363: 	movem.l	l90,-(a7)
00:0000029C 206F0010        	   364: 	move.l	(16+l92,a7),a0
00:000002A0 2E90            	   365: 	move.l	(a0),(0+l92,a7)
00:000002A2 206F0010        	   366: 	move.l	(16+l92,a7),a0
00:000002A6 2097            	   367: 	move.l	(0+l92,a7),(a0)
00:000002A8 2017            	   368: 	move.l	(0+l92,a7),d0
00:000002AA E280            	   369: 	asr.l	#1,d0
00:000002AC F2004000        	   370: 	fmove.l	d0,fp0
00:000002B0 F22F74000004    	   371: 	fmove.d	fp0,(4+l92,a7)
00:000002B6 F22F54000004    	   372: 	fmove.d	(4+l92,a7),fp0
00:000002BC F23C442330000000	   373: 	fdiv.d	#$41e0000000000000,fp0
00:000002C4 F22F74000004    	   374: 	fmove.d	fp0,(4+l92,a7)
00:000002CA F22F54000004    	   375: 	fmove.d	(4+l92,a7),fp0
                            	   376: l88
                            	   377: l90	reg
                            	   378: l91	freg
                            	   379: l92	equ	0
00:000002D0 4FEF000C        	   380: 	add.w	#12,a7
00:000002D4 4E75            	   381: 	rts
                            	   382: ; stacksize=12
                            	   383: 	fpu	1
                            	   384: 	opt o+,ol+,op+,oc+,ot+,oj+,ob+,om+
                            	   385: 	public	_OutputString
                            	   386: 	cnop	0,4
                            	   387: _OutputString
                            	   388: 	movem.l	l98,-(a7)
00:000002D8 6018            	   389: 	bra	l96
                            	   390: l95
00:000002DA 206F0004        	   391: 	move.l	(4+l100,a7),a0
00:000002DE 1010            	   392: 	move.b	(a0),d0
00:000002E0 4880            	   393: 	ext.w	d0
00:000002E2 48C0            	   394: 	ext.l	d0
00:000002E4 2F00            	   395: 	move.l	d0,-(a7)
00:000002E6 4EB900000000    	   396: 	jsr	_OutputChar
00:000002EC 52AF0008        	   397: 	addq.l	#1,(8+l100,a7)
00:000002F0 584F            	   398: 	addq.w	#4,a7
                            	   399: l96
00:000002F2 206F0004        	   400: 	move.l	(4+l100,a7),a0
00:000002F6 4A10            	   401: 	tst.b	(a0)
00:000002F8 66E0            	   402: 	bne	l95
                            	   403: l97
                            	   404: l93
                            	   405: l98	reg
                            	   406: l100	equ	0
00:000002FA 4E75            	   407: 	rts
                            	   408: 	fpu	1
                            	   409: 	opt o+,ol+,op+,oc+,ot+,oj+,ob+,om+
                            	   410: 	public	_bootrom
                            	   411: 	cnop	0,4
                            	   412: _bootrom
00:000002FC 4FEFFFD8        	   413: 	sub.w	#40,a7
                            	   414: 	fmovem.x	l113,-(a7)
                            	   415: 	movem.l	l112,-(a7)
00:00000300 2F7C408900000018	   416: 	move.l	#$40890000,(24+l114,a7)
00:00000308 42AF001C        	   417: 	move.l	#$00000000,(28+l114,a7)
00:0000030C 2F7C4082C0000020	   418: 	move.l	#$4082c000,(32+l114,a7)
00:00000314 42AF0024        	   419: 	move.l	#$00000000,(36+l114,a7)
00:00000318 13FC000200000000	   420: 	move.b	#2,_OutputDevice
00:00000320 487A01CA        	   421: 	pea	l103
00:00000324 61B2            	   422: 	jsr	_OutputString
00:00000326 4879FD069000    	   423: 	move.l	#4245065728,-(a7)
00:0000032C 6100FCD2        	   424: 	jsr	_i2c_init
00:00000330 4879FD069010    	   425: 	move.l	#4245065744,-(a7)
00:00000336 6100FCC8        	   426: 	jsr	_i2c_init
00:0000033A 4879FD0FFD10    	   427: 	move.l	#4245683472,-(a7)
00:00000340 6100FF16        	   428: 	jsr	_rand_init
00:00000344 4878000A        	   429: 	move.l	#10,-(a7)
00:00000348 4EB900000000    	   430: 	jsr	_gfx_set_color_depth
00:0000034E 42A7            	   431: 	move.l	#0,-(a7)
00:00000350 4EB900000000    	   432: 	jsr	_gfx_set_color
00:00000356 487902580000    	   433: 	move.l	#39321600,-(a7)
00:0000035C 487903200000    	   434: 	move.l	#52428800,-(a7)
00:00000362 42A7            	   435: 	move.l	#0,-(a7)
00:00000364 42A7            	   436: 	move.l	#0,-(a7)
00:00000366 4EB900000000    	   437: 	jsr	_gfx_rect
00:0000036C 42AF0038        	   438: 	move.l	#0,(56+l114,a7)
00:00000370 4FEF0028        	   439: 	add.w	#40,a7
00:00000374 6078            	   440: 	bra	l105
                            	   441: l104
00:00000376 4879FD0FFD10    	   442: 	move.l	#4245683472,-(a7)
00:0000037C 6100FF1A        	   443: 	jsr	_get_rand_float
00:00000380 F22F5423001C    	   444: 	fmul.d	(28+l114,a7),fp0
00:00000386 F2000003        	   445: 	fintrz.x	fp0,fp0
00:0000038A F2006000        	   446: 	fmove.l	fp0,d0
00:0000038E 2F400004        	   447: 	move.l	d0,(4+l114,a7)
00:00000392 4879FD0FFD10    	   448: 	move.l	#4245683472,-(a7)
00:00000398 6100FEFE        	   449: 	jsr	_get_rand_float
00:0000039C F22F54230028    	   450: 	fmul.d	(40+l114,a7),fp0
00:000003A2 F2000003        	   451: 	fintrz.x	fp0,fp0
00:000003A6 F2006000        	   452: 	fmove.l	fp0,d0
00:000003AA 2F40000C        	   453: 	move.l	d0,(12+l114,a7)
00:000003AE 7010            	   454: 	moveq	#16,d0
00:000003B0 222F0008        	   455: 	move.l	(8+l114,a7),d1
00:000003B4 E1A9            	   456: 	lsl.l	d0,d1
00:000003B6 2F410008        	   457: 	move.l	d1,(8+l114,a7)
00:000003BA 7010            	   458: 	moveq	#16,d0
00:000003BC 222F000C        	   459: 	move.l	(12+l114,a7),d1
00:000003C0 E1A9            	   460: 	lsl.l	d0,d1
00:000003C2 2F41000C        	   461: 	move.l	d1,(12+l114,a7)
00:000003C6 4879FD0FFD10    	   462: 	move.l	#4245683472,-(a7)
00:000003CC 6100FEB6        	   463: 	jsr	_get_rand
00:000003D0 2F400020        	   464: 	move.l	d0,(32+l114,a7)
00:000003D4 2F2F0020        	   465: 	move.l	(32+l114,a7),-(a7)
00:000003D8 2F2F0014        	   466: 	move.l	(20+l114,a7),-(a7)
00:000003DC 2F2F0014        	   467: 	move.l	(20+l114,a7),-(a7)
00:000003E0 4EB900000000    	   468: 	jsr	_gfx_set_pixel
00:000003E6 4FEF0018        	   469: 	add.w	#24,a7
                            	   470: l107
00:000003EA 52AF0010        	   471: 	addq.l	#1,(16+l114,a7)
                            	   472: l105
00:000003EE 0CAF00004E200010	   473: 	cmp.l	#20000,(16+l114,a7)
00:000003F6 6D00FF7E        	   474: 	blt	l104
                            	   475: l106
00:000003FA 42AF0010        	   476: 	move.l	#0,(16+l114,a7)
00:000003FE 600000D8        	   477: 	bra	l109
                            	   478: l108
00:00000402 4879FD0FFD10    	   479: 	move.l	#4245683472,-(a7)
00:00000408 6100FE8E        	   480: 	jsr	_get_rand_float
00:0000040C F22F5423001C    	   481: 	fmul.d	(28+l114,a7),fp0
00:00000412 F2000003        	   482: 	fintrz.x	fp0,fp0
00:00000416 F2006000        	   483: 	fmove.l	fp0,d0
00:0000041A 2F400004        	   484: 	move.l	d0,(4+l114,a7)
00:0000041E 4879FD0FFD10    	   485: 	move.l	#4245683472,-(a7)
00:00000424 6100FE72        	   486: 	jsr	_get_rand_float
00:00000428 F22F54230028    	   487: 	fmul.d	(40+l114,a7),fp0
00:0000042E F2000003        	   488: 	fintrz.x	fp0,fp0
00:00000432 F2006000        	   489: 	fmove.l	fp0,d0
00:00000436 2F40000C        	   490: 	move.l	d0,(12+l114,a7)
00:0000043A 4879FD0FFD10    	   491: 	move.l	#4245683472,-(a7)
00:00000440 6100FE56        	   492: 	jsr	_get_rand_float
00:00000444 F22F54230024    	   493: 	fmul.d	(36+l114,a7),fp0
00:0000044A F2000003        	   494: 	fintrz.x	fp0,fp0
00:0000044E F2006000        	   495: 	fmove.l	fp0,d0
00:00000452 2F400014        	   496: 	move.l	d0,(20+l114,a7)
00:00000456 4879FD0FFD10    	   497: 	move.l	#4245683472,-(a7)
00:0000045C 6100FE3A        	   498: 	jsr	_get_rand_float
00:00000460 F22F54230030    	   499: 	fmul.d	(48+l114,a7),fp0
00:00000466 F2000003        	   500: 	fintrz.x	fp0,fp0
00:0000046A F2006000        	   501: 	fmove.l	fp0,d0
00:0000046E 2F40001C        	   502: 	move.l	d0,(28+l114,a7)
00:00000472 7010            	   503: 	moveq	#16,d0
00:00000474 222F0010        	   504: 	move.l	(16+l114,a7),d1
00:00000478 E1A9            	   505: 	lsl.l	d0,d1
00:0000047A 2F410010        	   506: 	move.l	d1,(16+l114,a7)
00:0000047E 7010            	   507: 	moveq	#16,d0
00:00000480 222F0014        	   508: 	move.l	(20+l114,a7),d1
00:00000484 E1A9            	   509: 	lsl.l	d0,d1
00:00000486 2F410014        	   510: 	move.l	d1,(20+l114,a7)
00:0000048A 7010            	   511: 	moveq	#16,d0
00:0000048C 222F0018        	   512: 	move.l	(24+l114,a7),d1
00:00000490 E1A9            	   513: 	lsl.l	d0,d1
00:00000492 2F410018        	   514: 	move.l	d1,(24+l114,a7)
00:00000496 7010            	   515: 	moveq	#16,d0
00:00000498 222F001C        	   516: 	move.l	(28+l114,a7),d1
00:0000049C E1A9            	   517: 	lsl.l	d0,d1
00:0000049E 2F41001C        	   518: 	move.l	d1,(28+l114,a7)
00:000004A2 4879FD0FFD10    	   519: 	move.l	#4245683472,-(a7)
00:000004A8 6100FDDA        	   520: 	jsr	_get_rand
00:000004AC 2F400028        	   521: 	move.l	d0,(40+l114,a7)
00:000004B0 2F2F0028        	   522: 	move.l	(40+l114,a7),-(a7)
00:000004B4 4EB900000000    	   523: 	jsr	_gfx_set_color
00:000004BA 2F2F0024        	   524: 	move.l	(36+l114,a7),-(a7)
00:000004BE 2F2F0024        	   525: 	move.l	(36+l114,a7),-(a7)
00:000004C2 2F2F0024        	   526: 	move.l	(36+l114,a7),-(a7)
00:000004C6 2F2F0024        	   527: 	move.l	(36+l114,a7),-(a7)
00:000004CA 4EB900000000    	   528: 	jsr	_gfx_line
00:000004D0 4FEF0028        	   529: 	add.w	#40,a7
                            	   530: l111
00:000004D4 52AF0010        	   531: 	addq.l	#1,(16+l114,a7)
                            	   532: l109
00:000004D8 0CAF00004E200010	   533: 	cmp.l	#20000,(16+l114,a7)
00:000004E0 6D00FF20        	   534: 	blt	l108
                            	   535: l110
                            	   536: l101
                            	   537: l112	reg
                            	   538: l113	freg
                            	   539: l114	equ	0
00:000004E4 4FEF0028        	   540: 	add.w	#40,a7
00:000004E8 4E75            	   541: 	rts
                            	   542: 	cnop	0,4
                            	   543: l103
00:000004EC 42              	   544: 	dc.b	66
00:000004ED 6F              	   545: 	dc.b	111
00:000004EE 6F              	   546: 	dc.b	111
00:000004EF 74              	   547: 	dc.b	116
00:000004F0 69              	   548: 	dc.b	105
00:000004F1 6E              	   549: 	dc.b	110
00:000004F2 67              	   550: 	dc.b	103
00:000004F3 20              	   551: 	dc.b	32
00:000004F4 0D              	   552: 	dc.b	13
00:000004F5 0A              	   553: 	dc.b	10
00:000004F6 00              	   554: 	dc.b	0
                            	   555: 	public	_gfx_set_pixel
                            	   556: 	public	_gfx_set_color
                            	   557: 	public	_gfx_rect
                            	   558: 	public	_gfx_line
                            	   559: 	public	_OutputDevice
                            	   560: 	public	_OutputChar
                            	   561: 	public	_gfx_set_color_depth
                            	   562: 	section	"BSS",bss
                            	   563: 	cnop	0,4
                            	   564: l1
01:00000000 00              	   565: 	ds.b	96
01:00000001 *
                            	   566: 


Symbols by name:
_OutputChar                     external EXP
_OutputDevice                   external EXP
_OutputString                   00:000002D8 EXP
_bootrom                        00:000002FC EXP
_get_rand                       00:00000284 EXP
_get_rand_float                 00:00000298 EXP
_gfx_line                       external EXP
_gfx_rect                       external EXP
_gfx_set_color                  external EXP
_gfx_set_color_depth            external EXP
_gfx_set_pixel                  external EXP
_i2c_cmd                        00:000000A0 EXP
_i2c_cmd_read_with_ack          00:00000074 EXP
_i2c_cmd_read_with_stop         00:00000058 EXP
_i2c_disable                    00:0000002C EXP
_i2c_enable                     00:0000001C EXP
_i2c_get_status                 00:00000048 EXP
_i2c_init                       00:00000000 EXP
_i2c_read                       00:000000C8 EXP
_i2c_read_byte                  00:00000090 EXP
_i2c_wait_tip                   00:00000038 EXP
_i2c_write                      00:00000178 EXP
_rand_init                      00:00000258 EXP
_rtc_read                       00:00000218 EXP
_rtc_write                      00:00000238 EXP
l1                              01:00000000
l100                             E:00000000
l101                            00:000004E4
l103                            00:000004EC
l104                            00:00000376
l105                            00:000003EE
l106                            00:000003FA
l107                            00:000003EA
l108                            00:00000402
l109                            00:000004D8
l11                              E:00000000
l110                            00:000004E4
l111                            00:000004D4
l112                             E:00000000
l113                             E:00000000
l114                             E:00000000
l12                             00:00000036
l14                              E:00000000
l16                              E:00000000
l17                             00:00000046
l19                             00:00000038
l2                              00:0000001A
l20                             00:00000044
l21                             00:00000038
l22                              E:00000000
l24                              E:00000000
l25                             00:00000054
l27                              E:00000000
l29                              E:00000000
l30                             00:00000070
l32                              E:00000000
l34                              E:00000000
l35                             00:0000008C
l37                              E:00000000
l39                              E:00000000
l4                               E:00000000
l40                             00:0000009C
l42                              E:00000000
l44                              E:00000000
l45                             00:000000C4
l47                              E:00000000
l49                              E:00000000
l50                             00:00000172
l52                             00:00000116
l53                             00:00000144
l54                             00:0000014C
l55                             00:00000130
l56                              E:00000000
l58                              E:00000000
l59                             00:00000212
l6                               E:00000000
l61                             00:000001B2
l62                             00:000001E4
l63                             00:000001EC
l64                             00:000001D0
l65                              E:00000000
l67                              E:00000000
l68                             00:00000236
l7                              00:00000028
l70                              E:00000000
l73                             00:00000256
l75                              E:00000000
l78                             00:00000282
l80                              E:00000000
l82                              E:00000000
l83                             00:00000294
l85                              E:00000000
l87                              E:00000000
l88                             00:000002D0
l9                               E:00000000
l90                              E:00000000
l91                              E:00000000
l92                              E:00000000
l93                             00:000002FA
l95                             00:000002DA
l96                             00:000002F2
l97                             00:000002FA
l98                              E:00000000

Symbols by value:
00000000 l92
00000000 l87
00000000 l82
00000000 _i2c_init
00000000 l67
00000000 l6
00000000 l58
00000000 l49
00000000 l1
00000000 l100
00000000 l44
00000000 l39
00000000 l34
00000000 l29
00000000 l11
00000000 l114
00000000 l24
00000000 l16
0000001A l2
0000001C _i2c_enable
00000028 l7
0000002C _i2c_disable
00000036 l12
00000038 l19
00000038 l21
00000038 _i2c_wait_tip
00000044 l20
00000046 l17
00000048 _i2c_get_status
00000054 l25
00000058 _i2c_cmd_read_with_stop
00000070 l30
00000074 _i2c_cmd_read_with_ack
0000008C l35
00000090 _i2c_read_byte
0000009C l40
000000A0 _i2c_cmd
000000C4 l45
000000C8 _i2c_read
00000116 l52
00000130 l55
00000144 l53
0000014C l54
00000172 l50
00000178 _i2c_write
000001B2 l61
000001D0 l64
000001E4 l62
000001EC l63
00000212 l59
00000218 _rtc_read
00000236 l68
00000238 _rtc_write
00000256 l73
00000258 _rand_init
00000282 l78
00000284 _get_rand
00000294 l83
00000298 _get_rand_float
000002D0 l88
000002D8 _OutputString
000002DA l95
000002F2 l96
000002FA l93
000002FA l97
000002FC _bootrom
00000376 l104
000003EA l107
000003EE l105
000003FA l106
00000402 l108
000004D4 l111
000004D8 l109
000004E4 l110
000004E4 l101
000004EC l103
